; Function Attrs: nounwind uwtable
define dso_local i32 @pg_encoding_mbcliplen(i32 noundef %0, ptr noundef %1, i32 noundef %2, i32 noundef %3) local_unnamed_addr #0 {
  %5 = tail call i32 @pg_encoding_max_length(i32 noundef %0) #13
  %6 = icmp eq i32 %5, 1
  br i1 %6, label %7, label %14

7:                                                ; preds = %4
  %8 = tail call i32 @llvm.smin.i32(i32 %2, i32 %3)
  %9 = icmp sgt i32 %8, 0
  br i1 %9, label %.lr.ph.preheader.i, label %.critedge

.lr.ph.preheader.i:                               ; preds = %7
  %wide.trip.count.i = zext nneg i32 %8 to i64
  br label %.lr.ph.i

.lr.ph.i:                                         ; preds = %12, %.lr.ph.preheader.i
  %indvars.iv.i = phi i64 [ 0, %.lr.ph.preheader.i ], [ %indvars.iv.next.i, %12 ]
  %10 = getelementptr inbounds nuw i8, ptr %1, i64 %indvars.iv.i
  %11 = load i8, ptr %10, align 1
  %.not.i = icmp eq i8 %11, 0
  br i1 %.not.i, label %.critedge.loopexit.split.loop.exit13.i, label %12

12:                                               ; preds = %.lr.ph.i
  %indvars.iv.next.i = add nuw nsw i64 %indvars.iv.i, 1
  %exitcond.not.i = icmp eq i64 %indvars.iv.next.i, %wide.trip.count.i
  br i1 %exitcond.not.i, label %.critedge, label %.lr.ph.i, !llvm.loop !10

.critedge.loopexit.split.loop.exit13.i:           ; preds = %.lr.ph.i
  %13 = trunc nuw nsw i64 %indvars.iv.i to i32
  br label %.critedge

14:                                               ; preds = %4
  %15 = sext i32 %0 to i64
  %16 = getelementptr inbounds [0 x %struct.pg_wchar_tbl], ptr @pg_wchar_table, i64 0, i64 %15, i32 2
  %17 = load ptr, ptr %16, align 8
  %18 = icmp sgt i32 %2, 0
  br i1 %18, label %.lr.ph, label %.critedge

.lr.ph:                                           ; preds = %14, %26
  %.02130 = phi i32 [ %22, %26 ], [ 0, %14 ]
  %.02229 = phi ptr [ %29, %26 ], [ %1, %14 ]
  %.02328 = phi i32 [ %27, %26 ], [ %2, %14 ]
  %19 = load i8, ptr %.02229, align 1
  %.not = icmp eq i8 %19, 0
  br i1 %.not, label %.critedge, label %20

20:                                               ; preds = %.lr.ph
  %21 = tail call i32 %17(ptr noundef nonnull %.02229) #13
  %22 = add i32 %21, %.02130
  %23 = icmp sgt i32 %22, %3
  br i1 %23, label %.critedge, label %24

24:                                               ; preds = %20
  %25 = icmp eq i32 %22, %3
  br i1 %25, label %.critedge, label %26

26:                                               ; preds = %24
  %27 = sub i32 %.02328, %21
  %28 = sext i32 %21 to i64
  %29 = getelementptr inbounds i8, ptr %.02229, i64 %28
  %30 = icmp sgt i32 %27, 0
  br i1 %30, label %.lr.ph, label %.critedge, !llvm.loop !11

.critedge:                                        ; preds = %26, %24, %20, %.lr.ph, %12, %14, %.critedge.loopexit.split.loop.exit13.i, %7
  %.0 = phi i32 [ 0, %7 ], [ %13, %.critedge.loopexit.split.loop.exit13.i ], [ 0, %14 ], [ %8, %12 ], [ %22, %26 ], [ %3, %24 ], [ %.02130, %20 ], [ %.02130, %.lr.ph ]
  ret i32 %.0
}